target datalayout = "e-m:e-p270:32:32-p271:32:32-p272:64:64-i64:64-i128:128-f80:128-n8:16:32:64-S128"
target triple = "x86_64-pc-linux-gnu"

%"class.icu_77::IcuCApiHelper.1" = type { i32 }

; Function Attrs: inlinehint mustprogress nounwind uwtable
define internal noundef signext i8 @_ZL9U_FAILURE10UErrorCode(i32 noundef %0) #2 {
  %2 = alloca i32, align 4
  store i32 %0, ptr %2, align 4, !tbaa !30
  %3 = load i32, ptr %2, align 4, !tbaa !30
  %4 = icmp sgt i32 %3, 0
  %5 = zext i1 %4 to i8
  ret i8 %5
}

; Function Attrs: mustprogress nounwind uwtable
define linkonce_odr noundef ptr @_ZN6icu_7713IcuCApiHelperI17USpoofCheckResultNS_11CheckResultELi657779934EE8validateEPKS1_R10UErrorCode(ptr noundef %0, ptr noundef nonnull align 4 dereferenceable(4) %1) #0 comdat align 2 {
  %3 = alloca ptr, align 8
  %4 = alloca ptr, align 8
  %5 = alloca ptr, align 8
  %6 = alloca ptr, align 8
  %7 = alloca i32, align 4
  store ptr %0, ptr %4, align 8, !tbaa !89
  store ptr %1, ptr %5, align 8, !tbaa !10
  %8 = load ptr, ptr %5, align 8, !tbaa !10
  %9 = load i32, ptr %8, align 4, !tbaa !30
  %10 = call noundef signext i8 @_ZL9U_FAILURE10UErrorCode(i32 noundef %9)
  %11 = icmp ne i8 %10, 0
  br i1 %11, label %12, label %13

12:                                               ; preds = %2
  store ptr null, ptr %3, align 8
  br label %34

13:                                               ; preds = %2
  %14 = load ptr, ptr %4, align 8, !tbaa !89
  %15 = icmp eq ptr %14, null
  br i1 %15, label %16, label %18

16:                                               ; preds = %13
  %17 = load ptr, ptr %5, align 8, !tbaa !10
  store i32 1, ptr %17, align 4, !tbaa !30
  store ptr null, ptr %3, align 8
  br label %34

18:                                               ; preds = %13
  call void @llvm.lifetime.start.p0(i64 8, ptr %6) #15
  %19 = load ptr, ptr %4, align 8, !tbaa !89
  store ptr %19, ptr %6, align 8, !tbaa !73
  %20 = load ptr, ptr %6, align 8, !tbaa !73
  %21 = icmp eq ptr %20, null
  br i1 %21, label %24, label %22

22:                                               ; preds = %18
  %23 = getelementptr inbounds i8, ptr %20, i64 8
  br label %24

24:                                               ; preds = %22, %18
  %25 = phi ptr [ %23, %22 ], [ null, %18 ]
  %26 = getelementptr inbounds nuw %"class.icu_77::IcuCApiHelper.1", ptr %25, i32 0, i32 0
  %27 = load i32, ptr %26, align 4, !tbaa !77
  %28 = icmp ne i32 %27, 657779934
  br i1 %28, label %29, label %31

29:                                               ; preds = %24
  %30 = load ptr, ptr %5, align 8, !tbaa !10
  store i32 3, ptr %30, align 4, !tbaa !30
  store ptr null, ptr %3, align 8
  store i32 1, ptr %7, align 4
  br label %33

31:                                               ; preds = %24
  %32 = load ptr, ptr %6, align 8, !tbaa !73
  store ptr %32, ptr %3, align 8
  store i32 1, ptr %7, align 4
  br label %33

33:                                               ; preds = %31, %29
  call void @llvm.lifetime.end.p0(i64 8, ptr %6) #15
  br label %34

34:                                               ; preds = %33, %16, %12
  %35 = load ptr, ptr %3, align 8
  ret ptr %35
}

; Function Attrs: mustprogress nounwind uwtable
define linkonce_odr noundef ptr @_ZN6icu_7713IcuCApiHelperI17USpoofCheckResultNS_11CheckResultELi657779934EE8validateEPS1_R10UErrorCode(ptr noundef %0, ptr noundef nonnull align 4 dereferenceable(4) %1) #0 comdat align 2 {
  %3 = alloca ptr, align 8
  %4 = alloca ptr, align 8
  %5 = alloca ptr, align 8
  %6 = alloca ptr, align 8
  store ptr %0, ptr %3, align 8, !tbaa !89
  store ptr %1, ptr %4, align 8, !tbaa !10
  call void @llvm.lifetime.start.p0(i64 8, ptr %5) #15
  %7 = load ptr, ptr %3, align 8, !tbaa !89
  store ptr %7, ptr %5, align 8, !tbaa !89
  call void @llvm.lifetime.start.p0(i64 8, ptr %6) #15
  %8 = load ptr, ptr %5, align 8, !tbaa !89
  %9 = load ptr, ptr %4, align 8, !tbaa !10
  %10 = call noundef ptr @_ZN6icu_7713IcuCApiHelperI17USpoofCheckResultNS_11CheckResultELi657779934EE8validateEPKS1_R10UErrorCode(ptr noundef %8, ptr noundef nonnull align 4 dereferenceable(4) %9)
  store ptr %10, ptr %6, align 8, !tbaa !73
  %11 = load ptr, ptr %6, align 8, !tbaa !73
  call void @llvm.lifetime.end.p0(i64 8, ptr %6) #15
  call void @llvm.lifetime.end.p0(i64 8, ptr %5) #15
  ret ptr %11
}

; Function Attrs: mustprogress uwtable
define noundef ptr @_ZN6icu_7711CheckResult12validateThisEP17USpoofCheckResultR10UErrorCode(ptr noundef %0, ptr noundef nonnull align 4 dereferenceable(4) %1) #1 align 2 {
  %3 = alloca ptr, align 8
  %4 = alloca ptr, align 8
  store ptr %0, ptr %3, align 8, !tbaa !89
  store ptr %1, ptr %4, align 8, !tbaa !10
  %5 = load ptr, ptr %3, align 8, !tbaa !89
  %6 = load ptr, ptr %4, align 8, !tbaa !10
  %7 = call noundef ptr @_ZN6icu_7713IcuCApiHelperI17USpoofCheckResultNS_11CheckResultELi657779934EE8validateEPS1_R10UErrorCode(ptr noundef %5, ptr noundef nonnull align 4 dereferenceable(4) %6)
  ret ptr %7
}