; Function Attrs: mustprogress nofree norecurse nosync nounwind willreturn memory(argmem: readwrite) uwtable
define noundef ptr @_ZN6icu_7711CheckResult12validateThisEP17USpoofCheckResultR10UErrorCode(ptr noundef readonly %0, ptr noundef nonnull align 4 captures(none) dereferenceable(4) %1) local_unnamed_addr #13 align 2 {
  %3 = load i32, ptr %1, align 4, !tbaa !19
  %4 = icmp slt i32 %3, 1
  br i1 %4, label %5, label %_ZN6icu_7713IcuCApiHelperI17USpoofCheckResultNS_11CheckResultELi657779934EE8validateEPS1_R10UErrorCode.exit

5:                                                ; preds = %2
  %6 = icmp eq ptr %0, null
  br i1 %6, label %.sink.split.i.i, label %7

7:                                                ; preds = %5
  %8 = getelementptr inbounds nuw i8, ptr %0, i64 8
  %9 = load i32, ptr %8, align 4, !tbaa !61
  %.not9.i.i = icmp eq i32 %9, 657779934
  br i1 %.not9.i.i, label %_ZN6icu_7713IcuCApiHelperI17USpoofCheckResultNS_11CheckResultELi657779934EE8validateEPS1_R10UErrorCode.exit, label %.sink.split.i.i

.sink.split.i.i:                                  ; preds = %7, %5
  %.sink.i.i = phi i32 [ 1, %5 ], [ 3, %7 ]
  store i32 %.sink.i.i, ptr %1, align 4, !tbaa !19
  br label %_ZN6icu_7713IcuCApiHelperI17USpoofCheckResultNS_11CheckResultELi657779934EE8validateEPS1_R10UErrorCode.exit

_ZN6icu_7713IcuCApiHelperI17USpoofCheckResultNS_11CheckResultELi657779934EE8validateEPS1_R10UErrorCode.exit: ; preds = %2, %7, %.sink.split.i.i
  %.0.i.i = phi ptr [ null, %2 ], [ %0, %7 ], [ null, %.sink.split.i.i ]
  ret ptr %.0.i.i
}